target datalayout = "e-m:e-p270:32:32-p271:32:32-p272:64:64-i64:64-i128:128-f80:128-n8:16:32:64-S128"
target triple = "x86_64-pc-linux-gnu"

%struct.Ccf_Man_t_ = type { ptr, i32, i32, i32, i32, ptr, ptr, ptr, ptr }
%struct.Vec_Int_t_ = type { i32, i32, ptr }
%struct.Gia_Man_t_ = type { ptr, ptr, i32, i32, i32, i32, ptr, ptr, i32, i32, i32, ptr, ptr, %struct.Vec_Int_t_, %struct.Vec_Int_t_, i32, i32, i32, %struct.Vec_Int_t_, ptr, ptr, ptr, i32, i32, i32, i32, ptr, ptr, ptr, ptr, ptr, i32, i32, ptr, i32, ptr, ptr, ptr, ptr, ptr, ptr, ptr, ptr, ptr, ptr, ptr, ptr, ptr, ptr, ptr, ptr, ptr, ptr, %struct.Vec_Int_t_, %struct.Vec_Int_t_, ptr, ptr, ptr, ptr, ptr, ptr, ptr, ptr, ptr, ptr, ptr, ptr, ptr, ptr, ptr, ptr, ptr, ptr, ptr, ptr, ptr, i32, float, float, ptr, ptr, i32, ptr, ptr, ptr, ptr, ptr, ptr, ptr, ptr, ptr, ptr, ptr, ptr, ptr, ptr, ptr, i64, i64, ptr, ptr, i32, i32, i32, i32, i32, i32, i32, i32, i32, i32, i32, i32, ptr, ptr, ptr, ptr, ptr, ptr, ptr, ptr, i32, i32, i32, ptr, i32, i32, ptr, ptr, ptr, ptr, ptr, ptr, i32, i32, ptr, %struct.Vec_Int_t_, %struct.Vec_Int_t_, %struct.Vec_Int_t_, ptr, ptr, ptr, i32, i32, i32, i32, ptr, ptr, ptr, ptr, ptr }
%struct.Gia_Obj_t_ = type <{ i64, i32 }>
%struct.sat_solver_t = type { i32, i32, i32, i32, %struct.Sat_Mem_t_, i32, i32, ptr, ptr, i32, i32, i32, i32, i32, i64, i64, i64, ptr, ptr, i32, i32, %struct.veci_t, ptr, i32, ptr, ptr, ptr, ptr, ptr, ptr, ptr, ptr, %struct.veci_t, %struct.veci_t, %struct.veci_t, %struct.veci_t, ptr, %struct.veci_t, i32, i32, i32, double, double, i32, i32, i32, %struct.stats_t, i32, i32, i32, i32, i32, i64, i64, i64, %struct.veci_t, ptr, i32, i32, i32, %struct.veci_t, %struct.veci_t, i32, i32, i32, ptr, ptr, i32, ptr, i32, i32, %struct.veci_t, %struct.veci_t, %struct.veci_t, ptr, ptr, i32, ptr }
%struct.Sat_Mem_t_ = type { [2 x i32], [2 x i32], [2 x i32], [2 x i32], i32, i32, i32, i32, ptr }
%struct.stats_t = type { i32, i32, i32, i64, i64, i64, i64, i64, i64, i64 }
%struct.veci_t = type { i32, i32, ptr }

; Function Attrs: inlinehint nounwind uwtable
define internal i32 @Abc_LitNotCond(i32 noundef %0, i32 noundef %1) #5 {
  %3 = alloca i32, align 4
  %4 = alloca i32, align 4
  store i32 %0, ptr %3, align 4, !tbaa !8
  store i32 %1, ptr %4, align 4, !tbaa !8
  %5 = load i32, ptr %3, align 4, !tbaa !8
  %6 = load i32, ptr %4, align 4, !tbaa !8
  %7 = icmp sgt i32 %6, 0
  %8 = zext i1 %7 to i32
  %9 = xor i32 %5, %8
  ret i32 %9
}

; Function Attrs: inlinehint nounwind uwtable
define internal i32 @Gia_ObjFaninId1(ptr noundef %0, i32 noundef %1) #5 {
  %3 = alloca ptr, align 8
  %4 = alloca i32, align 4
  store ptr %0, ptr %3, align 8, !tbaa !36
  store i32 %1, ptr %4, align 4, !tbaa !8
  %5 = load i32, ptr %4, align 4, !tbaa !8
  %6 = load ptr, ptr %3, align 8, !tbaa !36
  %7 = load i64, ptr %6, align 4
  %8 = lshr i64 %7, 32
  %9 = and i64 %8, 536870911
  %10 = trunc i64 %9 to i32
  %11 = sub nsw i32 %5, %10
  ret i32 %11
}

; Function Attrs: inlinehint nounwind uwtable
define internal i32 @Gia_ObjFaninId0(ptr noundef %0, i32 noundef %1) #5 {
  %3 = alloca ptr, align 8
  %4 = alloca i32, align 4
  store ptr %0, ptr %3, align 8, !tbaa !36
  store i32 %1, ptr %4, align 4, !tbaa !8
  %5 = load i32, ptr %4, align 4, !tbaa !8
  %6 = load ptr, ptr %3, align 8, !tbaa !36
  %7 = load i64, ptr %6, align 4
  %8 = and i64 %7, 536870911
  %9 = trunc i64 %8 to i32
  %10 = sub nsw i32 %5, %9
  ret i32 %10
}

; Function Attrs: inlinehint nounwind uwtable
define internal i32 @Gia_ObjId(ptr noundef %0, ptr noundef %1) #5 {
  %3 = alloca ptr, align 8
  %4 = alloca ptr, align 8
  store ptr %0, ptr %3, align 8, !tbaa !3
  store ptr %1, ptr %4, align 8, !tbaa !36
  %5 = load ptr, ptr %4, align 8, !tbaa !36
  %6 = load ptr, ptr %3, align 8, !tbaa !3
  %7 = getelementptr inbounds nuw %struct.Gia_Man_t_, ptr %6, i32 0, i32 6
  %8 = load ptr, ptr %7, align 8, !tbaa !56
  %9 = ptrtoint ptr %5 to i64
  %10 = ptrtoint ptr %8 to i64
  %11 = sub i64 %9, %10
  %12 = sdiv exact i64 %11, 12
  %13 = trunc i64 %12 to i32
  ret i32 %13
}

; Function Attrs: inlinehint nounwind uwtable
define internal void @Vec_IntWriteEntry(ptr noundef %0, i32 noundef %1, i32 noundef %2) #5 {
  %4 = alloca ptr, align 8
  %5 = alloca i32, align 4
  %6 = alloca i32, align 4
  store ptr %0, ptr %4, align 8, !tbaa !29
  store i32 %1, ptr %5, align 4, !tbaa !8
  store i32 %2, ptr %6, align 4, !tbaa !8
  %7 = load i32, ptr %6, align 4, !tbaa !8
  %8 = load ptr, ptr %4, align 8, !tbaa !29
  %9 = getelementptr inbounds nuw %struct.Vec_Int_t_, ptr %8, i32 0, i32 2
  %10 = load ptr, ptr %9, align 8, !tbaa !34
  %11 = load i32, ptr %5, align 4, !tbaa !8
  %12 = sext i32 %11 to i64
  %13 = getelementptr inbounds i32, ptr %10, i64 %12
  store i32 %7, ptr %13, align 4, !tbaa !8
  ret void
}

; Function Attrs: inlinehint nounwind uwtable
define internal i32 @Abc_Var2Lit(i32 noundef %0, i32 noundef %1) #5 {
  %3 = alloca i32, align 4
  %4 = alloca i32, align 4
  store i32 %0, ptr %3, align 4, !tbaa !8
  store i32 %1, ptr %4, align 4, !tbaa !8
  %5 = load i32, ptr %3, align 4, !tbaa !8
  %6 = load i32, ptr %3, align 4, !tbaa !8
  %7 = add nsw i32 %5, %6
  %8 = load i32, ptr %4, align 4, !tbaa !8
  %9 = add nsw i32 %7, %8
  ret i32 %9
}

; Function Attrs: inlinehint nounwind uwtable
define internal i32 @sat_solver_var_value(ptr noundef %0, i32 noundef %1) #5 {
  %3 = alloca ptr, align 8
  %4 = alloca i32, align 4
  store ptr %0, ptr %3, align 8, !tbaa !57
  store i32 %1, ptr %4, align 4, !tbaa !8
  %5 = load ptr, ptr %3, align 8, !tbaa !57
  %6 = getelementptr inbounds nuw %struct.sat_solver_t, ptr %5, i32 0, i32 36
  %7 = load ptr, ptr %6, align 8, !tbaa !59
  %8 = load i32, ptr %4, align 4, !tbaa !8
  %9 = sext i32 %8 to i64
  %10 = getelementptr inbounds i32, ptr %7, i64 %9
  %11 = load i32, ptr %10, align 4, !tbaa !8
  %12 = icmp eq i32 %11, 1
  %13 = zext i1 %12 to i32
  ret i32 %13
}

; Function Attrs: inlinehint nounwind uwtable
define internal i32 @Gia_ManRegNum(ptr noundef %0) #5 {
  %2 = alloca ptr, align 8
  store ptr %0, ptr %2, align 8, !tbaa !3
  %3 = load ptr, ptr %2, align 8, !tbaa !3
  %4 = getelementptr inbounds nuw %struct.Gia_Man_t_, ptr %3, i32 0, i32 2
  %5 = load i32, ptr %4, align 8, !tbaa !58
  ret i32 %5
}

; Function Attrs: inlinehint nounwind uwtable
define internal i32 @Gia_ObjCioId(ptr noundef %0) #5 {
  %2 = alloca ptr, align 8
  store ptr %0, ptr %2, align 8, !tbaa !36
  %3 = load ptr, ptr %2, align 8, !tbaa !36
  %4 = load i64, ptr %3, align 4
  %5 = lshr i64 %4, 32
  %6 = and i64 %5, 536870911
  %7 = trunc i64 %6 to i32
  ret i32 %7
}

; Function Attrs: inlinehint nounwind uwtable
define internal i32 @Gia_Obj1Copy(ptr noundef %0, i32 noundef %1, i32 noundef %2) #5 {
  %4 = alloca ptr, align 8
  %5 = alloca i32, align 4
  %6 = alloca i32, align 4
  store ptr %0, ptr %4, align 8, !tbaa !29
  store i32 %1, ptr %5, align 4, !tbaa !8
  store i32 %2, ptr %6, align 4, !tbaa !8
  %7 = load ptr, ptr %4, align 8, !tbaa !29
  %8 = load i32, ptr %5, align 4, !tbaa !8
  %9 = call i32 @Vec_IntEntry(ptr noundef %7, i32 noundef %8)
  %10 = load i32, ptr %6, align 4, !tbaa !8
  %11 = call i32 @Abc_LitNotCond(i32 noundef %9, i32 noundef %10)
  ret i32 %11
}

; Function Attrs: inlinehint nounwind uwtable
define internal i32 @Gia_Obj0Copy(ptr noundef %0, i32 noundef %1, i32 noundef %2) #5 {
  %4 = alloca ptr, align 8
  %5 = alloca i32, align 4
  %6 = alloca i32, align 4
  store ptr %0, ptr %4, align 8, !tbaa !29
  store i32 %1, ptr %5, align 4, !tbaa !8
  store i32 %2, ptr %6, align 4, !tbaa !8
  %7 = load ptr, ptr %4, align 8, !tbaa !29
  %8 = load i32, ptr %5, align 4, !tbaa !8
  %9 = call i32 @Vec_IntEntry(ptr noundef %7, i32 noundef %8)
  %10 = load i32, ptr %6, align 4, !tbaa !8
  %11 = call i32 @Abc_LitNotCond(i32 noundef %9, i32 noundef %10)
  ret i32 %11
}

; Function Attrs: inlinehint nounwind uwtable
define internal i32 @Gia_ObjFaninId1p(ptr noundef %0, ptr noundef %1) #5 {
  %3 = alloca ptr, align 8
  %4 = alloca ptr, align 8
  store ptr %0, ptr %3, align 8, !tbaa !3
  store ptr %1, ptr %4, align 8, !tbaa !36
  %5 = load ptr, ptr %4, align 8, !tbaa !36
  %6 = load ptr, ptr %3, align 8, !tbaa !3
  %7 = load ptr, ptr %4, align 8, !tbaa !36
  %8 = call i32 @Gia_ObjId(ptr noundef %6, ptr noundef %7)
  %9 = call i32 @Gia_ObjFaninId1(ptr noundef %5, i32 noundef %8)
  ret i32 %9
}

; Function Attrs: inlinehint nounwind uwtable
define internal i32 @Gia_ObjFaninId0p(ptr noundef %0, ptr noundef %1) #5 {
  %3 = alloca ptr, align 8
  %4 = alloca ptr, align 8
  store ptr %0, ptr %3, align 8, !tbaa !3
  store ptr %1, ptr %4, align 8, !tbaa !36
  %5 = load ptr, ptr %4, align 8, !tbaa !36
  %6 = load ptr, ptr %3, align 8, !tbaa !3
  %7 = load ptr, ptr %4, align 8, !tbaa !36
  %8 = call i32 @Gia_ObjId(ptr noundef %6, ptr noundef %7)
  %9 = call i32 @Gia_ObjFaninId0(ptr noundef %5, i32 noundef %8)
  ret i32 %9
}

; Function Attrs: inlinehint nounwind uwtable
define internal i32 @Gia_ObjFaninC1(ptr noundef %0) #5 {
  %2 = alloca ptr, align 8
  store ptr %0, ptr %2, align 8, !tbaa !36
  %3 = load ptr, ptr %2, align 8, !tbaa !36
  %4 = load i64, ptr %3, align 4
  %5 = lshr i64 %4, 61
  %6 = and i64 %5, 1
  %7 = trunc i64 %6 to i32
  ret i32 %7
}

; Function Attrs: inlinehint nounwind uwtable
define internal i32 @Gia_ObjFaninC0(ptr noundef %0) #5 {
  %2 = alloca ptr, align 8
  store ptr %0, ptr %2, align 8, !tbaa !36
  %3 = load ptr, ptr %2, align 8, !tbaa !36
  %4 = load i64, ptr %3, align 4
  %5 = lshr i64 %4, 29
  %6 = and i64 %5, 1
  %7 = trunc i64 %6 to i32
  ret i32 %7
}

; Function Attrs: inlinehint nounwind uwtable
define internal i32 @Gia_ObjIsAnd(ptr noundef %0) #5 {
  %2 = alloca ptr, align 8
  store ptr %0, ptr %2, align 8, !tbaa !36
  %3 = load ptr, ptr %2, align 8, !tbaa !36
  %4 = load i64, ptr %3, align 4
  %5 = lshr i64 %4, 31
  %6 = and i64 %5, 1
  %7 = trunc i64 %6 to i32
  %8 = icmp ne i32 %7, 0
  br i1 %8, label %15, label %9

9:                                                ; preds = %1
  %10 = load ptr, ptr %2, align 8, !tbaa !36
  %11 = load i64, ptr %10, align 4
  %12 = and i64 %11, 536870911
  %13 = trunc i64 %12 to i32
  %14 = icmp ne i32 %13, 536870911
  br label %15

15:                                               ; preds = %9, %1
  %16 = phi i1 [ false, %1 ], [ %14, %9 ]
  %17 = zext i1 %16 to i32
  ret i32 %17
}

; Function Attrs: inlinehint nounwind uwtable
define internal ptr @Gia_ManObj(ptr noundef %0, i32 noundef %1) #5 {
  %3 = alloca ptr, align 8
  %4 = alloca i32, align 4
  store ptr %0, ptr %3, align 8, !tbaa !3
  store i32 %1, ptr %4, align 4, !tbaa !8
  %5 = load ptr, ptr %3, align 8, !tbaa !3
  %6 = getelementptr inbounds nuw %struct.Gia_Man_t_, ptr %5, i32 0, i32 6
  %7 = load ptr, ptr %6, align 8, !tbaa !56
  %8 = load i32, ptr %4, align 4, !tbaa !8
  %9 = sext i32 %8 to i64
  %10 = getelementptr inbounds %struct.Gia_Obj_t_, ptr %7, i64 %9
  ret ptr %10
}

; Function Attrs: inlinehint nounwind uwtable
define internal i32 @Vec_IntEntry(ptr noundef %0, i32 noundef %1) #5 {
  %3 = alloca ptr, align 8
  %4 = alloca i32, align 4
  store ptr %0, ptr %3, align 8, !tbaa !29
  store i32 %1, ptr %4, align 4, !tbaa !8
  %5 = load ptr, ptr %3, align 8, !tbaa !29
  %6 = getelementptr inbounds nuw %struct.Vec_Int_t_, ptr %5, i32 0, i32 2
  %7 = load ptr, ptr %6, align 8, !tbaa !34
  %8 = load i32, ptr %4, align 4, !tbaa !8
  %9 = sext i32 %8 to i64
  %10 = getelementptr inbounds i32, ptr %7, i64 %9
  %11 = load i32, ptr %10, align 4, !tbaa !8
  ret i32 %11
}

; Function Attrs: nounwind uwtable
define void @Gia_ManCofOneDerive_rec(ptr noundef %0, i32 noundef %1) #0 {
  %3 = alloca ptr, align 8
  %4 = alloca i32, align 4
  %5 = alloca ptr, align 8
  %6 = alloca i32, align 4
  %7 = alloca i32, align 4
  %8 = alloca i32, align 4
  %9 = alloca i32, align 4
  %10 = alloca i32, align 4
  %11 = alloca i32, align 4
  store ptr %0, ptr %3, align 8, !tbaa !10
  store i32 %1, ptr %4, align 4, !tbaa !8
  call void @llvm.lifetime.start.p0(i64 8, ptr %5) #12
  call void @llvm.lifetime.start.p0(i64 4, ptr %6) #12
  %12 = load ptr, ptr %3, align 8, !tbaa !10
  %13 = getelementptr inbounds nuw %struct.Ccf_Man_t_, ptr %12, i32 0, i32 7
  %14 = load ptr, ptr %13, align 8, !tbaa !27
  %15 = load i32, ptr %4, align 4, !tbaa !8
  %16 = call i32 @Vec_IntEntry(ptr noundef %14, i32 noundef %15)
  %17 = icmp ne i32 %16, -1
  br i1 %17, label %18, label %19

18:                                               ; preds = %2
  store i32 1, ptr %7, align 4
  br label %87

19:                                               ; preds = %2
  %20 = load ptr, ptr %3, align 8, !tbaa !10
  %21 = getelementptr inbounds nuw %struct.Ccf_Man_t_, ptr %20, i32 0, i32 6
  %22 = load ptr, ptr %21, align 8, !tbaa !35
  %23 = load i32, ptr %4, align 4, !tbaa !8
  %24 = call ptr @Gia_ManObj(ptr noundef %22, i32 noundef %23)
  store ptr %24, ptr %5, align 8, !tbaa !36
  %25 = load ptr, ptr %5, align 8, !tbaa !36
  %26 = call i32 @Gia_ObjIsAnd(ptr noundef %25)
  %27 = icmp ne i32 %26, 0
  br i1 %27, label %28, label %63

28:                                               ; preds = %19
  call void @llvm.lifetime.start.p0(i64 4, ptr %8) #12
  %29 = load ptr, ptr %5, align 8, !tbaa !36
  %30 = call i32 @Gia_ObjFaninC0(ptr noundef %29)
  store i32 %30, ptr %8, align 4, !tbaa !8
  call void @llvm.lifetime.start.p0(i64 4, ptr %9) #12
  %31 = load ptr, ptr %5, align 8, !tbaa !36
  %32 = call i32 @Gia_ObjFaninC1(ptr noundef %31)
  store i32 %32, ptr %9, align 4, !tbaa !8
  call void @llvm.lifetime.start.p0(i64 4, ptr %10) #12
  %33 = load ptr, ptr %3, align 8, !tbaa !10
  %34 = getelementptr inbounds nuw %struct.Ccf_Man_t_, ptr %33, i32 0, i32 6
  %35 = load ptr, ptr %34, align 8, !tbaa !35
  %36 = load ptr, ptr %5, align 8, !tbaa !36
  %37 = call i32 @Gia_ObjFaninId0p(ptr noundef %35, ptr noundef %36)
  store i32 %37, ptr %10, align 4, !tbaa !8
  call void @llvm.lifetime.start.p0(i64 4, ptr %11) #12
  %38 = load ptr, ptr %3, align 8, !tbaa !10
  %39 = getelementptr inbounds nuw %struct.Ccf_Man_t_, ptr %38, i32 0, i32 6
  %40 = load ptr, ptr %39, align 8, !tbaa !35
  %41 = load ptr, ptr %5, align 8, !tbaa !36
  %42 = call i32 @Gia_ObjFaninId1p(ptr noundef %40, ptr noundef %41)
  store i32 %42, ptr %11, align 4, !tbaa !8
  %43 = load ptr, ptr %3, align 8, !tbaa !10
  %44 = load i32, ptr %10, align 4, !tbaa !8
  call void @Gia_ManCofOneDerive_rec(ptr noundef %43, i32 noundef %44)
  %45 = load ptr, ptr %3, align 8, !tbaa !10
  %46 = load i32, ptr %11, align 4, !tbaa !8
  call void @Gia_ManCofOneDerive_rec(ptr noundef %45, i32 noundef %46)
  %47 = load ptr, ptr %3, align 8, !tbaa !10
  %48 = getelementptr inbounds nuw %struct.Ccf_Man_t_, ptr %47, i32 0, i32 6
  %49 = load ptr, ptr %48, align 8, !tbaa !35
  %50 = load ptr, ptr %3, align 8, !tbaa !10
  %51 = getelementptr inbounds nuw %struct.Ccf_Man_t_, ptr %50, i32 0, i32 7
  %52 = load ptr, ptr %51, align 8, !tbaa !27
  %53 = load i32, ptr %10, align 4, !tbaa !8
  %54 = load i32, ptr %8, align 4, !tbaa !8
  %55 = call i32 @Gia_Obj0Copy(ptr noundef %52, i32 noundef %53, i32 noundef %54)
  %56 = load ptr, ptr %3, align 8, !tbaa !10
  %57 = getelementptr inbounds nuw %struct.Ccf_Man_t_, ptr %56, i32 0, i32 7
  %58 = load ptr, ptr %57, align 8, !tbaa !27
  %59 = load i32, ptr %11, align 4, !tbaa !8
  %60 = load i32, ptr %9, align 4, !tbaa !8
  %61 = call i32 @Gia_Obj1Copy(ptr noundef %58, i32 noundef %59, i32 noundef %60)
  %62 = call i32 @Gia_ManHashAnd(ptr noundef %49, i32 noundef %55, i32 noundef %61)
  store i32 %62, ptr %6, align 4, !tbaa !8
  call void @llvm.lifetime.end.p0(i64 4, ptr %11) #12
  call void @llvm.lifetime.end.p0(i64 4, ptr %10) #12
  call void @llvm.lifetime.end.p0(i64 4, ptr %9) #12
  call void @llvm.lifetime.end.p0(i64 4, ptr %8) #12
  br label %81

63:                                               ; preds = %19
  %64 = load ptr, ptr %5, align 8, !tbaa !36
  %65 = call i32 @Gia_ObjCioId(ptr noundef %64)
  %66 = load ptr, ptr %3, align 8, !tbaa !10
  %67 = getelementptr inbounds nuw %struct.Ccf_Man_t_, ptr %66, i32 0, i32 0
  %68 = load ptr, ptr %67, align 8, !tbaa !12
  %69 = call i32 @Gia_ManRegNum(ptr noundef %68)
  %70 = icmp sge i32 %65, %69
  br i1 %70, label %71, label %77

71:                                               ; preds = %63
  %72 = load ptr, ptr %3, align 8, !tbaa !10
  %73 = getelementptr inbounds nuw %struct.Ccf_Man_t_, ptr %72, i32 0, i32 8
  %74 = load ptr, ptr %73, align 8, !tbaa !28
  %75 = load i32, ptr %4, align 4, !tbaa !8
  %76 = call i32 @sat_solver_var_value(ptr noundef %74, i32 noundef %75)
  store i32 %76, ptr %6, align 4, !tbaa !8
  br label %80

77:                                               ; preds = %63
  %78 = load i32, ptr %4, align 4, !tbaa !8
  %79 = call i32 @Abc_Var2Lit(i32 noundef %78, i32 noundef 0)
  store i32 %79, ptr %6, align 4, !tbaa !8
  br label %80

80:                                               ; preds = %77, %71
  br label %81

81:                                               ; preds = %80, %28
  %82 = load ptr, ptr %3, align 8, !tbaa !10
  %83 = getelementptr inbounds nuw %struct.Ccf_Man_t_, ptr %82, i32 0, i32 7
  %84 = load ptr, ptr %83, align 8, !tbaa !27
  %85 = load i32, ptr %4, align 4, !tbaa !8
  %86 = load i32, ptr %6, align 4, !tbaa !8
  call void @Vec_IntWriteEntry(ptr noundef %84, i32 noundef %85, i32 noundef %86)
  store i32 0, ptr %7, align 4
  br label %87

87:                                               ; preds = %81, %18
  call void @llvm.lifetime.end.p0(i64 4, ptr %6) #12
  call void @llvm.lifetime.end.p0(i64 8, ptr %5) #12
  %88 = load i32, ptr %7, align 4
  switch i32 %88, label %90 [
    i32 0, label %89
    i32 1, label %89
  ]

89:                                               ; preds = %87, %87
  ret void

90:                                               ; preds = %87
  unreachable
}