; Function Attrs: nounwind uwtable
define void @Gia_ManCofOneDerive_rec(ptr noundef %0, i32 noundef %1) local_unnamed_addr #0 {
  %3 = getelementptr inbounds nuw i8, ptr %0, i64 40
  %4 = load ptr, ptr %3, align 8, !tbaa !26
  %5 = getelementptr i8, ptr %4, i64 8
  %.val34 = load ptr, ptr %5, align 8, !tbaa !25
  %6 = sext i32 %1 to i64
  %7 = getelementptr inbounds i32, ptr %.val34, i64 %6
  %8 = load i32, ptr %7, align 4, !tbaa !47
  %.not = icmp eq i32 %8, -1
  br i1 %.not, label %9, label %60

9:                                                ; preds = %2
  %10 = getelementptr inbounds nuw i8, ptr %0, i64 32
  %11 = load ptr, ptr %10, align 8, !tbaa !28
  %12 = getelementptr i8, ptr %11, i64 32
  %.val = load ptr, ptr %12, align 8, !tbaa !46
  %13 = getelementptr inbounds %struct.Gia_Obj_t_, ptr %.val, i64 %6
  %.val31 = load i64, ptr %13, align 4
  %14 = and i64 %.val31, 2147483648
  %.not.i = icmp ne i64 %14, 0
  %15 = and i64 %.val31, 536870911
  %16 = icmp eq i64 %15, 536870911
  %narrow.i.not = or i1 %.not.i, %16
  br i1 %narrow.i.not, label %42, label %17

17:                                               ; preds = %9
  %18 = trunc i64 %.val31 to i32
  %19 = lshr i32 %18, 29
  %20 = and i32 %19, 1
  %21 = lshr i64 %.val31, 61
  %22 = trunc nuw nsw i64 %21 to i32
  %23 = and i32 %22, 1
  %24 = and i32 %18, 536870911
  %25 = sub nsw i32 %1, %24
  %26 = lshr i64 %.val31, 32
  %27 = trunc nuw i64 %26 to i32
  %28 = and i32 %27, 536870911
  %29 = sub nsw i32 %1, %28
  tail call void @Gia_ManCofOneDerive_rec(ptr noundef nonnull %0, i32 noundef %25)
  tail call void @Gia_ManCofOneDerive_rec(ptr noundef nonnull %0, i32 noundef %29)
  %30 = load ptr, ptr %10, align 8, !tbaa !28
  %31 = load ptr, ptr %3, align 8, !tbaa !26
  %32 = getelementptr i8, ptr %31, i64 8
  %.val37 = load ptr, ptr %32, align 8, !tbaa !25
  %33 = sext i32 %25 to i64
  %34 = getelementptr inbounds i32, ptr %.val37, i64 %33
  %35 = load i32, ptr %34, align 4, !tbaa !47
  %36 = xor i32 %35, %20
  %37 = sext i32 %29 to i64
  %38 = getelementptr inbounds i32, ptr %.val37, i64 %37
  %39 = load i32, ptr %38, align 4, !tbaa !47
  %40 = xor i32 %39, %23
  %41 = tail call i32 @Gia_ManHashAnd(ptr noundef %30, i32 noundef %36, i32 noundef %40) #17
  %.pre = load ptr, ptr %3, align 8, !tbaa !26
  %.phi.trans.insert = getelementptr i8, ptr %.pre, i64 8
  %.val42.pre = load ptr, ptr %.phi.trans.insert, align 8, !tbaa !25
  br label %58

42:                                               ; preds = %9
  %43 = lshr i64 %.val31, 32
  %44 = trunc nuw i64 %43 to i32
  %45 = and i32 %44, 536870911
  %46 = load ptr, ptr %0, align 8, !tbaa !3
  %47 = getelementptr i8, ptr %46, i64 16
  %.val40 = load i32, ptr %47, align 8, !tbaa !50
  %.not30 = icmp slt i32 %45, %.val40
  br i1 %.not30, label %56, label %48

48:                                               ; preds = %42
  %49 = getelementptr inbounds nuw i8, ptr %0, i64 48
  %50 = load ptr, ptr %49, align 8, !tbaa !27
  %51 = getelementptr i8, ptr %50, i64 328
  %.val41 = load ptr, ptr %51, align 8, !tbaa !51
  %52 = getelementptr inbounds i32, ptr %.val41, i64 %6
  %53 = load i32, ptr %52, align 4, !tbaa !47
  %54 = icmp eq i32 %53, 1
  %55 = zext i1 %54 to i32
  br label %58

56:                                               ; preds = %42
  %57 = shl nsw i32 %1, 1
  br label %58

58:                                               ; preds = %48, %56, %17
  %.val42 = phi ptr [ %.val42.pre, %17 ], [ %.val34, %48 ], [ %.val34, %56 ]
  %.0 = phi i32 [ %41, %17 ], [ %55, %48 ], [ %57, %56 ]
  %59 = getelementptr inbounds i32, ptr %.val42, i64 %6
  store i32 %.0, ptr %59, align 4, !tbaa !47
  br label %60

60:                                               ; preds = %2, %58
  ret void
}